; Function Attrs: mustprogress nounwind uwtable
define hidden noundef ptr @_ZN14PhaseIdealLoop21cast_incr_before_loopEP4NodeS1_S1_(ptr noundef nonnull align 8 dereferenceable(237) %0, ptr noundef %1, ptr noundef %2, ptr noundef readnone %3) local_unnamed_addr #0 align 2 {
  %5 = tail call align 8 ptr @llvm.threadlocal.address.p0(ptr align 8 @_ZN6Thread12_thr_currentE)
  %6 = load ptr, ptr %5, align 8
  %7 = getelementptr inbounds i8, ptr %6, i64 1808
  %8 = load ptr, ptr %7, align 8
  %9 = getelementptr inbounds i8, ptr %8, i64 128
  %10 = load ptr, ptr %9, align 8
  %11 = getelementptr inbounds i8, ptr %10, i64 728
  %12 = load ptr, ptr %11, align 8
  %13 = getelementptr inbounds i8, ptr %12, i64 40
  %14 = load ptr, ptr %13, align 8
  %15 = getelementptr inbounds i8, ptr %12, i64 32
  %16 = load ptr, ptr %15, align 8
  %17 = ptrtoint ptr %14 to i64
  %18 = ptrtoint ptr %16 to i64
  %19 = sub i64 %17, %18
  %.not.i.i.i = icmp ult i64 %19, 88
  br i1 %.not.i.i.i, label %22, label %20

20:                                               ; preds = %4
  %21 = getelementptr inbounds i8, ptr %16, i64 88
  store ptr %21, ptr %15, align 8
  br label %_ZN4NodenwEm.exit

22:                                               ; preds = %4
  %23 = tail call noundef ptr @_ZN5Arena4growEmN17AllocFailStrategy13AllocFailEnumE(ptr noundef nonnull align 8 dereferenceable(48) %12, i64 noundef 88, i32 noundef 0) #11
  br label %_ZN4NodenwEm.exit

_ZN4NodenwEm.exit:                                ; preds = %20, %22
  %.0.i.i.i = phi ptr [ %16, %20 ], [ %23, %22 ]
  %24 = icmp eq ptr %.0.i.i.i, null
  br i1 %24, label %27, label %25

25:                                               ; preds = %_ZN4NodenwEm.exit
  %26 = load ptr, ptr @_ZN7TypeInt3INTE, align 8
  tail call void @_ZN10CastIINodeC2EP4NodeS1_PK4TypeN18ConstraintCastNode14DependencyTypeEbPK9TypeTuple(ptr noundef nonnull align 8 dereferenceable(81) %.0.i.i.i, ptr noundef %2, ptr noundef %1, ptr noundef %26, i32 noundef 2, i1 noundef zeroext false, ptr noundef null)
  br label %27

27:                                               ; preds = %25, %_ZN4NodenwEm.exit
  tail call void @_ZN14PhaseIdealLoop17register_new_nodeEP4NodeS1_(ptr noundef nonnull align 8 dereferenceable(237) %0, ptr noundef %.0.i.i.i, ptr noundef %2) #11
  %28 = getelementptr inbounds i8, ptr %1, i64 16
  %29 = load ptr, ptr %28, align 8
  %30 = getelementptr inbounds i8, ptr %1, i64 32
  %31 = load i32, ptr %30, align 8
  %32 = zext i32 %31 to i64
  %33 = getelementptr inbounds ptr, ptr %29, i64 %32
  %.not = icmp eq i32 %31, 0
  br i1 %.not, label %.loopexit, label %.lr.ph

.lr.ph:                                           ; preds = %27, %48
  %.01820 = phi ptr [ %49, %48 ], [ %29, %27 ]
  %34 = load ptr, ptr %.01820, align 8
  %35 = getelementptr inbounds i8, ptr %34, i64 44
  %36 = load i32, ptr %35, align 4
  %37 = and i32 %36, 15
  %38 = icmp eq i32 %37, 12
  br i1 %38, label %39, label %48

39:                                               ; preds = %.lr.ph
  %40 = getelementptr inbounds i8, ptr %34, i64 8
  %41 = load ptr, ptr %40, align 8
  %42 = load ptr, ptr %41, align 8
  %43 = icmp eq ptr %42, %3
  br i1 %43, label %44, label %48

44:                                               ; preds = %39
  %45 = getelementptr inbounds i8, ptr %0, i64 56
  %46 = load ptr, ptr %45, align 8
  %47 = tail call noundef i32 @_ZN4Node12replace_edgeEPS_S0_P8PhaseGVN(ptr noundef nonnull align 8 dereferenceable(52) %34, ptr noundef nonnull %1, ptr noundef %.0.i.i.i, ptr noundef %46) #11
  br label %.loopexit

48:                                               ; preds = %.lr.ph, %39
  %49 = getelementptr inbounds i8, ptr %.01820, i64 8
  %50 = icmp ult ptr %49, %33
  br i1 %50, label %.lr.ph, label %.loopexit, !llvm.loop !37

.loopexit:                                        ; preds = %48, %27, %44
  %.0 = phi ptr [ %.0.i.i.i, %44 ], [ null, %27 ], [ null, %48 ]
  ret ptr %.0
}